ARM GAS  /tmp/ccfEXtUo.s 			page 1


   1              		.cpu cortex-m0
   2              		.arch armv6s-m
   3              		.fpu softvfp
   4              		.eabi_attribute 20, 1
   5              		.eabi_attribute 21, 1
   6              		.eabi_attribute 23, 3
   7              		.eabi_attribute 24, 1
   8              		.eabi_attribute 25, 1
   9              		.eabi_attribute 26, 1
  10              		.eabi_attribute 30, 6
  11              		.eabi_attribute 34, 0
  12              		.eabi_attribute 18, 4
  13              		.file	"main.c"
  14              		.text
  15              	.Ltext0:
  16              		.cfi_sections	.debug_frame
  17              		.file 1 "Src/main.c"
  18              		.section	.text.delay,"ax",%progbits
  19              		.align	1
  20              		.global	delay
  21              		.syntax unified
  22              		.code	16
  23              		.thumb_func
  25              	delay:
  26              	.LFB49:
   1:Src/main.c    **** #include "LED.h"
   2:Src/main.c    **** #include "UART.h"
   3:Src/main.c    **** 
   4:Src/main.c    **** void delay(unsigned count)
   5:Src/main.c    **** {
  27              		.loc 1 5 1
  28              		.cfi_startproc
  29              		@ args = 0, pretend = 0, frame = 8
  30              		@ frame_needed = 1, uses_anonymous_args = 0
  31 0000 80B5     		push	{r7, lr}
  32              	.LCFI0:
  33              		.cfi_def_cfa_offset 8
  34              		.cfi_offset 7, -8
  35              		.cfi_offset 14, -4
  36 0002 82B0     		sub	sp, sp, #8
  37              	.LCFI1:
  38              		.cfi_def_cfa_offset 16
  39 0004 00AF     		add	r7, sp, #0
  40              	.LCFI2:
  41              		.cfi_def_cfa_register 7
  42 0006 7860     		str	r0, [r7, #4]
   6:Src/main.c    ****     while(--count > 0);
  43              		.loc 1 6 10
  44 0008 C046     		nop
  45              	.L2:
  46              		.loc 1 6 19 discriminator 1
  47 000a 7B68     		ldr	r3, [r7, #4]
  48 000c 013B     		subs	r3, r3, #1
  49 000e 7B60     		str	r3, [r7, #4]
  50 0010 7B68     		ldr	r3, [r7, #4]
  51 0012 002B     		cmp	r3, #0
  52 0014 F9D1     		bne	.L2
ARM GAS  /tmp/ccfEXtUo.s 			page 2


   7:Src/main.c    **** }
  53              		.loc 1 7 1
  54 0016 C046     		nop
  55 0018 C046     		nop
  56 001a BD46     		mov	sp, r7
  57 001c 02B0     		add	sp, sp, #8
  58              		@ sp needed
  59 001e 80BD     		pop	{r7, pc}
  60              		.cfi_endproc
  61              	.LFE49:
  63              		.section	.rodata
  64              		.align	2
  65              	.LC0:
  66 0000 48656C6C 		.ascii	"Hello World!\015\012\000"
  66      6F20576F 
  66      726C6421 
  66      0D0A00
  67              		.section	.text.main,"ax",%progbits
  68              		.align	1
  69              		.global	main
  70              		.syntax unified
  71              		.code	16
  72              		.thumb_func
  74              	main:
  75              	.LFB50:
   8:Src/main.c    **** 
   9:Src/main.c    **** int main(void)
  10:Src/main.c    **** {
  76              		.loc 1 10 1
  77              		.cfi_startproc
  78              		@ args = 0, pretend = 0, frame = 24
  79              		@ frame_needed = 1, uses_anonymous_args = 0
  80 0000 90B5     		push	{r4, r7, lr}
  81              	.LCFI3:
  82              		.cfi_def_cfa_offset 12
  83              		.cfi_offset 4, -12
  84              		.cfi_offset 7, -8
  85              		.cfi_offset 14, -4
  86 0002 87B0     		sub	sp, sp, #28
  87              	.LCFI4:
  88              		.cfi_def_cfa_offset 40
  89 0004 00AF     		add	r7, sp, #0
  90              	.LCFI5:
  91              		.cfi_def_cfa_register 7
  11:Src/main.c    **** 
  12:Src/main.c    ****     char str[] = "Hello World!\r\n";
  92              		.loc 1 12 10
  93 0006 3B1D     		adds	r3, r7, #4
  94 0008 0C4A     		ldr	r2, .L5
  95 000a 13CA     		ldmia	r2!, {r0, r1, r4}
  96 000c 13C3     		stmia	r3!, {r0, r1, r4}
  97 000e 1188     		ldrh	r1, [r2]
  98 0010 1980     		strh	r1, [r3]
  99 0012 9278     		ldrb	r2, [r2, #2]
 100 0014 9A70     		strb	r2, [r3, #2]
  13:Src/main.c    ****     unsigned lenStr = sizeof(str) / sizeof(char) - 1;
 101              		.loc 1 13 14
ARM GAS  /tmp/ccfEXtUo.s 			page 3


 102 0016 0E23     		movs	r3, #14
 103 0018 7B61     		str	r3, [r7, #20]
  14:Src/main.c    **** 
  15:Src/main.c    **** 
  16:Src/main.c    ****     LEDInit();
 104              		.loc 1 16 5
 105 001a FFF7FEFF 		bl	LEDInit
  17:Src/main.c    ****     UARTInit();
 106              		.loc 1 17 5
 107 001e FFF7FEFF 		bl	UARTInit
 108              	.L4:
  18:Src/main.c    **** 
  19:Src/main.c    ****     while(1)
  20:Src/main.c    ****     {
  21:Src/main.c    ****         UARTTransmit((uint8_t*)str, lenStr);
 109              		.loc 1 21 9
 110 0022 7A69     		ldr	r2, [r7, #20]
 111 0024 3B1D     		adds	r3, r7, #4
 112 0026 1100     		movs	r1, r2
 113 0028 1800     		movs	r0, r3
 114 002a FFF7FEFF 		bl	UARTTransmit
  22:Src/main.c    ****         delay(1000000);
 115              		.loc 1 22 9 discriminator 1
 116 002e 044B     		ldr	r3, .L5+4
 117 0030 1800     		movs	r0, r3
 118 0032 FFF7FEFF 		bl	delay
  21:Src/main.c    ****         delay(1000000);
 119              		.loc 1 21 9
 120 0036 C046     		nop
 121 0038 F3E7     		b	.L4
 122              	.L6:
 123 003a C046     		.align	2
 124              	.L5:
 125 003c 00000000 		.word	.LC0
 126 0040 40420F00 		.word	1000000
 127              		.cfi_endproc
 128              	.LFE50:
 130              		.text
 131              	.Letext0:
 132              		.file 2 "/home/luminyx/Documents/Dev/Embedded/Setup/arm-gnu-toolchain/arm-none-eabi/include/machin
 133              		.file 3 "/home/luminyx/Documents/Dev/Embedded/Setup/arm-gnu-toolchain/arm-none-eabi/include/sys/_s
 134              		.file 4 "Inc/UART.h"
 135              		.file 5 "Inc/LED.h"
ARM GAS  /tmp/ccfEXtUo.s 			page 4

